target datalayout = "e-m:e-p270:32:32-p271:32:32-p272:64:64-i64:64-i128:128-f80:128-n8:16:32:64-S128"
target triple = "x86_64-pc-linux-gnu"

%struct.aiMesh = type { i32, i32, i32, ptr, ptr, ptr, ptr, [8 x ptr], [8 x ptr], [8 x i32], ptr, i32, ptr, i32, %struct.aiString, i32, ptr, i32, %struct.aiAABB, ptr }
%struct.aiString = type { i32, [1024 x i8] }
%struct.aiAABB = type { %class.aiVector3t, %class.aiVector3t }
%class.aiVector3t = type { float, float, float }
%struct.aiFace = type { i32, ptr }

; Function Attrs: mustprogress nounwind uwtable
define linkonce_odr hidden void @_ZN6aiFaceC2Ev(ptr noundef nonnull align 8 dereferenceable(16) %0) unnamed_addr #0 comdat align 2 {
  %2 = alloca ptr, align 8
  store ptr %0, ptr %2, align 8
  %3 = load ptr, ptr %2, align 8
  %4 = getelementptr inbounds nuw %struct.aiFace, ptr %3, i32 0, i32 0
  store i32 0, ptr %4, align 8
  %5 = getelementptr inbounds nuw %struct.aiFace, ptr %3, i32 0, i32 1
  store ptr null, ptr %5, align 8
  ret void
}

; Function Attrs: mustprogress uwtable
define hidden void @_ZN6Assimp14addFacesToMeshEP6aiMesh(ptr noundef %0) #3 {
  %2 = alloca ptr, align 8
  %3 = alloca i32, align 4
  %4 = alloca i32, align 4
  %5 = alloca i32, align 4
  %6 = alloca ptr, align 8
  %7 = alloca i32, align 4
  store ptr %0, ptr %2, align 8
  %8 = load ptr, ptr %2, align 8
  %9 = getelementptr inbounds nuw %struct.aiMesh, ptr %8, i32 0, i32 2
  %10 = load i32, ptr %9, align 8
  %11 = zext i32 %10 to i64
  %12 = call { i64, i1 } @llvm.umul.with.overflow.i64(i64 %11, i64 16)
  %13 = extractvalue { i64, i1 } %12, 1
  %14 = extractvalue { i64, i1 } %12, 0
  %15 = call { i64, i1 } @llvm.uadd.with.overflow.i64(i64 %14, i64 8)
  %16 = extractvalue { i64, i1 } %15, 1
  %17 = or i1 %13, %16
  %18 = extractvalue { i64, i1 } %15, 0
  %19 = select i1 %17, i64 -1, i64 %18
  %20 = call noalias noundef nonnull ptr @_Znam(i64 noundef %19) #19
  store i64 %11, ptr %20, align 16
  %21 = getelementptr inbounds i8, ptr %20, i64 8
  %22 = icmp eq i64 %11, 0
  br i1 %22, label %29, label %23

23:                                               ; preds = %1
  %24 = getelementptr inbounds %struct.aiFace, ptr %21, i64 %11
  br label %25

25:                                               ; preds = %25, %23
  %26 = phi ptr [ %21, %23 ], [ %27, %25 ]
  call void @_ZN6aiFaceC2Ev(ptr noundef nonnull align 8 dereferenceable(16) %26) #17
  %27 = getelementptr inbounds %struct.aiFace, ptr %26, i64 1
  %28 = icmp eq ptr %27, %24
  br i1 %28, label %29, label %25

29:                                               ; preds = %1, %25
  %30 = load ptr, ptr %2, align 8
  %31 = getelementptr inbounds nuw %struct.aiMesh, ptr %30, i32 0, i32 10
  store ptr %21, ptr %31, align 8
  call void @llvm.lifetime.start.p0(i64 4, ptr %3) #17
  store i32 0, ptr %3, align 4
  call void @llvm.lifetime.start.p0(i64 4, ptr %4) #17
  store i32 0, ptr %4, align 4
  br label %32

32:                                               ; preds = %69, %29
  %33 = load i32, ptr %3, align 4
  %34 = load ptr, ptr %2, align 8
  %35 = getelementptr inbounds nuw %struct.aiMesh, ptr %34, i32 0, i32 2
  %36 = load i32, ptr %35, align 8
  %37 = icmp ult i32 %33, %36
  br i1 %37, label %39, label %38

38:                                               ; preds = %32
  store i32 2, ptr %5, align 4
  call void @llvm.lifetime.end.p0(i64 4, ptr %4) #17
  call void @llvm.lifetime.end.p0(i64 4, ptr %3) #17
  br label %72

39:                                               ; preds = %32
  call void @llvm.lifetime.start.p0(i64 8, ptr %6) #17
  %40 = load ptr, ptr %2, align 8
  %41 = getelementptr inbounds nuw %struct.aiMesh, ptr %40, i32 0, i32 10
  %42 = load ptr, ptr %41, align 8
  %43 = load i32, ptr %3, align 4
  %44 = zext i32 %43 to i64
  %45 = getelementptr inbounds nuw %struct.aiFace, ptr %42, i64 %44
  store ptr %45, ptr %6, align 8
  %46 = load ptr, ptr %6, align 8
  %47 = getelementptr inbounds nuw %struct.aiFace, ptr %46, i32 0, i32 0
  store i32 3, ptr %47, align 8
  %48 = call noalias noundef nonnull ptr @_Znam(i64 noundef 12) #19
  %49 = load ptr, ptr %6, align 8
  %50 = getelementptr inbounds nuw %struct.aiFace, ptr %49, i32 0, i32 1
  store ptr %48, ptr %50, align 8
  call void @llvm.lifetime.start.p0(i64 4, ptr %7) #17
  store i32 0, ptr %7, align 4
  br label %51

51:                                               ; preds = %63, %39
  %52 = load i32, ptr %7, align 4
  %53 = icmp ult i32 %52, 3
  br i1 %53, label %55, label %54

54:                                               ; preds = %51
  store i32 5, ptr %5, align 4
  call void @llvm.lifetime.end.p0(i64 4, ptr %7) #17
  br label %68

55:                                               ; preds = %51
  %56 = load i32, ptr %4, align 4
  %57 = load ptr, ptr %6, align 8
  %58 = getelementptr inbounds nuw %struct.aiFace, ptr %57, i32 0, i32 1
  %59 = load ptr, ptr %58, align 8
  %60 = load i32, ptr %7, align 4
  %61 = zext i32 %60 to i64
  %62 = getelementptr inbounds nuw i32, ptr %59, i64 %61
  store i32 %56, ptr %62, align 4
  br label %63

63:                                               ; preds = %55
  %64 = load i32, ptr %7, align 4
  %65 = add i32 %64, 1
  store i32 %65, ptr %7, align 4
  %66 = load i32, ptr %4, align 4
  %67 = add i32 %66, 1
  store i32 %67, ptr %4, align 4
  br label %51, !llvm.loop !3

68:                                               ; preds = %54
  call void @llvm.lifetime.end.p0(i64 8, ptr %6) #17
  br label %69

69:                                               ; preds = %68
  %70 = load i32, ptr %3, align 4
  %71 = add i32 %70, 1
  store i32 %71, ptr %3, align 4
  br label %32, !llvm.loop !5

72:                                               ; preds = %38
  ret void
}