; Function Attrs: mustprogress uwtable
define hidden void @_ZN6Assimp14addFacesToMeshEP6aiMesh(ptr noundef captures(none) %0) local_unnamed_addr #3 {
  %2 = getelementptr inbounds nuw i8, ptr %0, i64 8
  %3 = load i32, ptr %2, align 8
  %4 = zext i32 %3 to i64
  %5 = shl nuw nsw i64 %4, 4
  %6 = or disjoint i64 %5, 8
  %7 = tail call noalias noundef nonnull ptr @_Znam(i64 noundef %6) #22
  store i64 %4, ptr %7, align 16
  %8 = getelementptr inbounds nuw i8, ptr %7, i64 8
  %9 = icmp eq i32 %3, 0
  br i1 %9, label %.loopexit.thread, label %11

.loopexit.thread:                                 ; preds = %1
  %10 = getelementptr inbounds nuw i8, ptr %0, i64 208
  store ptr %8, ptr %10, align 8
  br label %._crit_edge

11:                                               ; preds = %1
  %12 = getelementptr inbounds nuw %struct.aiFace, ptr %8, i64 %4
  br label %13

13:                                               ; preds = %13, %11
  %14 = phi ptr [ %8, %11 ], [ %16, %13 ]
  store i32 0, ptr %14, align 8
  %15 = getelementptr inbounds nuw i8, ptr %14, i64 8
  store ptr null, ptr %15, align 8
  %16 = getelementptr inbounds nuw i8, ptr %14, i64 16
  %17 = icmp eq ptr %16, %12
  br i1 %17, label %.loopexit, label %13

.loopexit:                                        ; preds = %13
  %18 = getelementptr inbounds nuw i8, ptr %0, i64 208
  store ptr %8, ptr %18, align 8
  br label %.lr.ph

._crit_edge:                                      ; preds = %23, %.loopexit.thread
  ret void

.lr.ph:                                           ; preds = %.loopexit, %23
  %indvars.iv22 = phi i64 [ %indvars.iv.next23, %23 ], [ 0, %.loopexit ]
  %.01519 = phi i32 [ %30, %23 ], [ 0, %.loopexit ]
  %19 = load ptr, ptr %18, align 8
  %20 = getelementptr inbounds nuw %struct.aiFace, ptr %19, i64 %indvars.iv22
  store i32 3, ptr %20, align 8
  %21 = tail call noalias noundef nonnull dereferenceable(12) ptr @_Znam(i64 noundef 12) #22
  %22 = getelementptr inbounds nuw i8, ptr %20, i64 8
  store ptr %21, ptr %22, align 8
  br label %27

23:                                               ; preds = %27
  %indvars.iv.next23 = add nuw nsw i64 %indvars.iv22, 1
  %24 = load i32, ptr %2, align 8
  %25 = zext i32 %24 to i64
  %26 = icmp samesign ult i64 %indvars.iv.next23, %25
  br i1 %26, label %.lr.ph, label %._crit_edge, !llvm.loop !3

27:                                               ; preds = %.lr.ph, %27
  %indvars.iv = phi i64 [ 0, %.lr.ph ], [ %indvars.iv.next, %27 ]
  %.117 = phi i32 [ %.01519, %.lr.ph ], [ %30, %27 ]
  %28 = load ptr, ptr %22, align 8
  %29 = getelementptr inbounds nuw i32, ptr %28, i64 %indvars.iv
  store i32 %.117, ptr %29, align 4
  %indvars.iv.next = add nuw nsw i64 %indvars.iv, 1
  %30 = add i32 %.117, 1
  %exitcond.not = icmp eq i64 %indvars.iv.next, 3
  br i1 %exitcond.not, label %23, label %27, !llvm.loop !5
}